target datalayout = "e-m:e-p270:32:32-p271:32:32-p272:64:64-i64:64-i128:128-f80:128-n8:16:32:64-S128"
target triple = "x86_64-pc-linux-gnu"

%class.StatementFor = type { %class.Statement, ptr, ptr, ptr, ptr }
%class.Statement = type { ptr, i32, i32, ptr, ptr }

; Function Attrs: mustprogress uwtable
define dso_local void @_ZN12StatementForC2EP5BlockRK15StatementAssignRK10ExpressionS4_RKS0_(ptr noundef nonnull align 8 dereferenceable(64) %0, ptr noundef %1, ptr noundef nonnull align 8 dereferenceable(136) %2, ptr noundef nonnull align 8 dereferenceable(24) %3, ptr noundef nonnull align 8 dereferenceable(136) %4, ptr noundef nonnull align 8 dereferenceable(192) %5) unnamed_addr #4 align 2 {
  %7 = alloca ptr, align 8
  %8 = alloca ptr, align 8
  %9 = alloca ptr, align 8
  %10 = alloca ptr, align 8
  %11 = alloca ptr, align 8
  %12 = alloca ptr, align 8
  store ptr %0, ptr %7, align 8
  store ptr %1, ptr %8, align 8
  store ptr %2, ptr %9, align 8
  store ptr %3, ptr %10, align 8
  store ptr %4, ptr %11, align 8
  store ptr %5, ptr %12, align 8
  %13 = load ptr, ptr %7, align 8
  %14 = load ptr, ptr %8, align 8
  call void @_ZN9StatementC2E14eStatementTypeP5Block(ptr noundef nonnull align 8 dereferenceable(32) %13, i32 noundef 2, ptr noundef %14)
  store ptr getelementptr inbounds ({ [12 x ptr] }, ptr @_ZTV12StatementFor, i32 0, i32 0, i32 2), ptr %13, align 8
  %15 = getelementptr inbounds %class.StatementFor, ptr %13, i32 0, i32 1
  %16 = load ptr, ptr %9, align 8
  store ptr %16, ptr %15, align 8
  %17 = getelementptr inbounds %class.StatementFor, ptr %13, i32 0, i32 2
  %18 = load ptr, ptr %10, align 8
  store ptr %18, ptr %17, align 8
  %19 = getelementptr inbounds %class.StatementFor, ptr %13, i32 0, i32 3
  %20 = load ptr, ptr %11, align 8
  store ptr %20, ptr %19, align 8
  %21 = getelementptr inbounds %class.StatementFor, ptr %13, i32 0, i32 4
  %22 = load ptr, ptr %12, align 8
  store ptr %22, ptr %21, align 8
  ret void
}