; Function Attrs: mustprogress uwtable
define dso_local void @_ZN12StatementForC2EP5BlockRK15StatementAssignRK10ExpressionS4_RKS0_(ptr noundef nonnull align 8 dereferenceable(64) %0, ptr noundef %1, ptr noundef nonnull align 8 dereferenceable(136) %2, ptr noundef nonnull align 8 dereferenceable(24) %3, ptr noundef nonnull align 8 dereferenceable(136) %4, ptr noundef nonnull align 8 dereferenceable(192) %5) unnamed_addr #3 align 2 {
  tail call void @_ZN9StatementC2E14eStatementTypeP5Block(ptr noundef nonnull align 8 dereferenceable(32) %0, i32 noundef 2, ptr noundef %1)
  store ptr getelementptr inbounds ({ [12 x ptr] }, ptr @_ZTV12StatementFor, i64 0, i32 0, i64 2), ptr %0, align 8
  %7 = getelementptr inbounds i8, ptr %0, i64 32
  store ptr %2, ptr %7, align 8
  %8 = getelementptr inbounds i8, ptr %0, i64 40
  store ptr %3, ptr %8, align 8
  %9 = getelementptr inbounds i8, ptr %0, i64 48
  store ptr %4, ptr %9, align 8
  %10 = getelementptr inbounds i8, ptr %0, i64 56
  store ptr %5, ptr %10, align 8
  ret void
}